-----BEGIN RSA PRIVATE KEY-----
MIIEpAIBAAKCAQEAtxmSd7NkPDAWv9xGzuvRM7GHkc5z2w9A51OD2/bfsb/S/1MW
v/JXZy6ZACHlID8y/RzCnzJkR9au0Gkwd0TtqJJhbWbVerSRrmW4vB4Oj3Bb1XqJ
578vp97/EFVwsYe+ZhKAFwQnfAxLdzp/nnWEIB2OhNGa+PwOI/HyKX+nRfeEl5MU
kQlPDMwso+zamU+jvyrL86MBI5ORAKsn1ZwIS8YwjQRbcICf5GDTI2il59O0GTlR
jpqcTL0RwUxpqDlXz/rNiWBxoaq3SWc/gW0JCIIn8yeDkztPD2mH9S2560JiZyPo
XCig5OvKSwlVmWz/xkzbmQ74VhbFkx3aLWPufQIDAQABAoIBABXtyR3u7T1MIR1f
W1ei5I5FX9A1oqiEvig2V197xLS8HaAYqmvYsWEZMpfSd2eSSiAIVsLMPThhXNR3
FKfkKHZ8+ZAptb2ZbK0vX52gF+xT75u0rlmEC0gWrAOfx/xrHoGJC7A1/iicLFme
NvSabHWQNKZxmBbj0Sm6617O/BCj7RJudBZ6Iuid3t6qoX5lwZx1H+QNNQnaBnR4
wmOneukv6kIZP7Yy2/Uz7Qdy4kcH2oV7ZWbBRkphx7OCAtptDU4D9zCS5pAfG4h1
1PFv/BvBbwr7lVWHMRt6NzlCHS+t9KDVJAwLwPN0Gk+jZZbT6DuZlPn3HWhdylH+
g9omAoECgYEA89SD3sdFa0+ZsUDixpVf6KLp36dPjTshE+480ofNd+BrUFE58n4n
mcprAhVceuD9xIXTMTAFqFUF3MPscg3kJGVh07T8Qsvq30CM/320765L6t6qCMAv
FyuyAUpchE1HpGH/gxU8J1VSx1OuzbpUTUoYSVmjJp9XG20LJtLLp2ECgYEAwD0X
BVsw4OB+l0nPqIvFuMFMGU1NH1VyUMOG3VzhK1JgiVhYbK7Qlmxqkq58kgeU4d3D
5nBu45sVwcgwLG0IZlwbfzW++vmz2kQ70qVEQ16pm0sAx6nFlbPsqqjREIHcNDnb
RntX8YOw9Yl7K+uz2QUybrYjmJaVTqLl/VZLSJ0CgYEApWuyI3vx3sHcNWMd9zf0
H3IXVQK/d8N7x3fDj9lOTlvUsmLI+3kXCMFJI9q2KS9nOuLHywEXdYJpPcM2MJK4
CvE1E1ogInkR2XCDt/nivRD0tF1n4hPwXrnoQ/PdHG0Jg75wiM/pRY4fYNenKi+V
bfIs0+aaR2OmxxaNkENGo0ECgYBop1lHAzQC2HRSLE6udRk40ZJ6G8kmi7/mE+vx
ysSSbxA69St+T1Ui7va9z9vlK9dzduVVKFRV+HHJww/mv5zZDL+zazEDNLki1A61
SF93RauT7SsJh3UXYJIw/iKCmA+nJvAm2LMxuf22ThgN+w030kp4VxPd1+yEmM4Y
MshdSQKBgQDF72M5PtDJA+2vXIPj+ECaFtbnYZxPXiq7LlXn73B2KQ3z9Ub26eb+
T6Bh9UpEiH5KYmcLFrDr6/BWwP+matjHAegmf/XVkIOT1M4MsVrptyfr/8Z0UHV0
XFHswNTMLeUut/6qsIjgRDN4rFM9a8BMvuAqFmta8XST5OclBn1KQA==
-----END RSA PRIVATE KEY-----
Certificate:
    Data:
        Version: 3 (0x2)
        Serial Number: 0 (0x0)
    Signature Algorithm: sha256WithRSAEncryption
        Issuer: CN=localhost
        Validity
            Not Before: Jan 11 15:04:53 2018 GMT
            Not After : Jan  9 15:04:53 2028 GMT
        Subject: CN=localhost
        Subject Public Key Info:
            Public Key Algorithm: rsaEncryption
                Public-Key: (2048 bit)
                Modulus:
                    00:b7:19:92:77:b3:64:3c:30:16:bf:dc:46:ce:eb:
                    d1:33:b1:87:91:ce:73:db:0f:40:e7:53:83:db:f6:
                    df:b1:bf:d2:ff:53:16:bf:f2:57:67:2e:99:00:21:
                    e5:20:3f:32:fd:1c:c2:9f:32:64:47:d6:ae:d0:69:
                    30:77:44:ed:a8:92:61:6d:66:d5:7a:b4:91:ae:65:
                    b8:bc:1e:0e:8f:70:5b:d5:7a:89:e7:bf:2f:a7:de:
                    ff:10:55:70:b1:87:be:66:12:80:17:04:27:7c:0c:
                    4b:77:3a:7f:9e:75:84:20:1d:8e:84:d1:9a:f8:fc:
                    0e:23:f1:f2:29:7f:a7:45:f7:84:97:93:14:91:09:
                    4f:0c:cc:2c:a3:ec:da:99:4f:a3:bf:2a:cb:f3:a3:
                    01:23:93:91:00:ab:27:d5:9c:08:4b:c6:30:8d:04:
                    5b:70:80:9f:e4:60:d3:23:68:a5:e7:d3:b4:19:39:
                    51:8e:9a:9c:4c:bd:11:c1:4c:69:a8:39:57:cf:fa:
                    cd:89:60:71:a1:aa:b7:49:67:3f:81:6d:09:08:82:
                    27:f3:27:83:93:3b:4f:0f:69:87:f5:2d:b9:eb:42:
                    62:67:23:e8:5c:28:a0:e4:eb:ca:4b:09:55:99:6c:
                    ff:c6:4c:db:99:0e:f8:56:16:c5:93:1d:da:2d:63:
                    ee:7d
                Exponent: 65537 (0x10001)
        X509v3 extensions:
            X509v3 Basic Constraints: 
                CA:FALSE
            Netscape Comment: 
                OpenSSL Generated Certificate
            X509v3 Subject Key Identifier: 
                CA:0B:09:3B:5D:5B:54:22:95:B4:FA:8C:D0:D5:44:43:FA:43:2A:B2
            X509v3 Authority Key Identifier: 
                keyid:73:81:DD:4A:5C:46:94:CF:E8:43:DF:19:D8:DF:20:7B:D2:A9:B8:BB

    Signature Algorithm: sha256WithRSAEncryption
         80:fb:50:3b:f3:e0:13:be:1a:99:ce:48:9d:ed:4e:35:8a:e2:
         f5:bc:9d:b2:b2:ac:80:67:18:e9:5d:c9:c3:ea:2f:00:df:02:
         5d:12:3b:97:2b:37:c8:1a:97:73:07:b0:ca:50:f0:76:f7:ab:
         8a:6a:cf:0a:e2:d4:af:1e:a5:a9:77:95:70:36:df:54:68:ad:
         e8:c9:75:26:d1:ca:d3:ae:f2:2e:0f:42:39:01:25:d7:a6:1e:
         0c:b3:56:b7:38:45:ad:1d:bf:b8:66:e7:d0:c6:a7:be:e7:78:
         66:5b:2e:98:60:4b:10:9a:2d:ec:09:32:61:a9:86:12:c1:1d:
         72:6e:af:75:60:aa:dc:37:10:fd:ea:a7:03:d8:0e:58:70:2c:
         f0:59:73:00:e8:1e:89:d8:f8:94:b2:67:d5:58:a8:8f:d9:61:
         24:55:90:85:4b:46:8a:c3:b1:ef:47:30:7b:d0:87:81:6c:85:
         4b:5e:9e:6d:bf:1d:5a:fd:ed:8f:64:f6:04:9d:64:41:3f:de:
         c8:53:37:c2:e3:80:fb:6b:e6:fc:e1:c1:df:4a:f4:e7:8b:92:
         b8:fa:d1:67:7d:7d:e8:82:e3:42:9b:d2:e8:56:31:b6:24:6f:
         7c:d8:2c:03:8e:6a:dd:5b:7b:ac:4f:e4:8d:0e:56:a6:69:f2:
         94:21:62:cc
-----BEGIN CERTIFICATE-----
MIIDHjCCAgagAwIBAgIBADANBgkqhkiG9w0BAQsFADAUMRIwEAYDVQQDDAlsb2Nh
bGhvc3QwHhcNMTgwMTExMTUwNDUzWhcNMjgwMTA5MTUwNDUzWjAUMRIwEAYDVQQD
DAlsb2NhbGhvc3QwggEiMA0GCSqGSIb3DQEBAQUAA4IBDwAwggEKAoIBAQC3GZJ3
s2Q8MBa/3EbO69EzsYeRznPbD0DnU4Pb9t+xv9L/Uxa/8ldnLpkAIeUgPzL9HMKf
MmRH1q7QaTB3RO2okmFtZtV6tJGuZbi8Hg6PcFvVeonnvy+n3v8QVXCxh75mEoAX
BCd8DEt3On+edYQgHY6E0Zr4/A4j8fIpf6dF94SXkxSRCU8MzCyj7NqZT6O/Ksvz
owEjk5EAqyfVnAhLxjCNBFtwgJ/kYNMjaKXn07QZOVGOmpxMvRHBTGmoOVfP+s2J
YHGhqrdJZz+BbQkIgifzJ4OTO08PaYf1LbnrQmJnI+hcKKDk68pLCVWZbP/GTNuZ
DvhWFsWTHdotY+59AgMBAAGjezB5MAkGA1UdEwQCMAAwLAYJYIZIAYb4QgENBB8W
HU9wZW5TU0wgR2VuZXJhdGVkIENlcnRpZmljYXRlMB0GA1UdDgQWBBTKCwk7XVtU
IpW0+ozQ1URD+kMqsjAfBgNVHSMEGDAWgBRzgd1KXEaUz+hD3xnY3yB70qm4uzAN
BgkqhkiG9w0BAQsFAAOCAQEAgPtQO/PgE74amc5Ine1ONYri9bydsrKsgGcY6V3J
w+ovAN8CXRI7lys3yBqXcwewylDwdverimrPCuLUrx6lqXeVcDbfVGit6Ml1JtHK
067yLg9COQEl16YeDLNWtzhFrR2/uGbn0Manvud4ZlsumGBLEJot7AkyYamGEsEd
cm6vdWCq3DcQ/eqnA9gOWHAs8FlzAOgeidj4lLJn1Vioj9lhJFWQhUtGisOx70cw
e9CHgWyFS16ebb8dWv3tj2T2BJ1kQT/eyFM3wuOA+2vm/OHB30r054uSuPrRZ319
6ILjQpvS6FYxtiRvfNgsA45q3Vt7rE/kjQ5WpmnylCFizA==
-----END CERTIFICATE-----
